; ModuleID = '27/1473.c'
source_filename = "27/1473.c"
target datalayout = "e-m:e-p270:32:32-p271:32:32-p272:64:64-i64:64-f80:128-n8:16:32:64-S128"
target triple = "x86_64-pc-linux-gnu"

@.str = private unnamed_addr constant [4 x i8] c"%d\0A\00", align 1
@.str.1 = private unnamed_addr constant [11 x i8] c"%lf%lf%lf\0A\00", align 1
@.str.2 = private unnamed_addr constant [12 x i8] c"x1=x2=%.5f\0A\00", align 1
@.str.3 = private unnamed_addr constant [17 x i8] c"x1=%.5f;x2=%.5f\0A\00", align 1
@.str.4 = private unnamed_addr constant [29 x i8] c"x1=%.5f+%.5fi;x2=%.5f-%.5fi\0A\00", align 1

; Function Attrs: noinline nounwind uwtable
define dso_local i32 @main() #0 {
  %1 = alloca i32, align 4
  %2 = alloca i32, align 4
  %3 = alloca i32, align 4
  %4 = alloca double, align 8
  %5 = alloca double, align 8
  %6 = alloca double, align 8
  %7 = alloca double, align 8
  %8 = alloca double, align 8
  %9 = alloca double, align 8
  %10 = alloca double, align 8
  %11 = alloca double, align 8
  store i32 0, i32* %1, align 4
  %12 = call i32 (i8*, ...) @__isoc99_scanf(i8* getelementptr inbounds ([4 x i8], [4 x i8]* @.str, i64 0, i64 0), i32* %2)
  store i32 1, i32* %3, align 4
  br label %13

13:                                               ; preds = %87, %0
  %14 = call i32 (i8*, ...) @__isoc99_scanf(i8* getelementptr inbounds ([11 x i8], [11 x i8]* @.str.1, i64 0, i64 0), double* %4, double* %5, double* %6)
  %15 = load double, double* %5, align 8
  %16 = load double, double* %5, align 8
  %17 = fmul double %15, %16
  %18 = load double, double* %4, align 8
  %19 = fmul double 4.000000e+00, %18
  %20 = load double, double* %6, align 8
  %21 = fmul double %19, %20
  %22 = fsub double %17, %21
  store double %22, double* %9, align 8
  %23 = load double, double* %9, align 8
  %24 = call double @llvm.fabs.f64(double %23)
  %25 = fcmp ole double %24, 0x3EB0C6F7A0B5ED8D
  br i1 %25, label %26, label %33

26:                                               ; preds = %13
  %27 = load double, double* %5, align 8
  %28 = fneg double %27
  %29 = load double, double* %4, align 8
  %30 = fmul double 2.000000e+00, %29
  %31 = fdiv double %28, %30
  %32 = call i32 (i8*, ...) @printf(i8* getelementptr inbounds ([12 x i8], [12 x i8]* @.str.2, i64 0, i64 0), double %31)
  br label %84

33:                                               ; preds = %13
  %34 = load double, double* %9, align 8
  %35 = fcmp ogt double %34, 0x3EB0C6F7A0B5ED8D
  br i1 %35, label %36, label %56

36:                                               ; preds = %33
  %37 = load double, double* %5, align 8
  %38 = fneg double %37
  %39 = load double, double* %9, align 8
  %40 = call double @sqrt(double %39) #4
  %41 = fadd double %38, %40
  %42 = load double, double* %4, align 8
  %43 = fmul double 2.000000e+00, %42
  %44 = fdiv double %41, %43
  store double %44, double* %7, align 8
  %45 = load double, double* %5, align 8
  %46 = fneg double %45
  %47 = load double, double* %9, align 8
  %48 = call double @sqrt(double %47) #4
  %49 = fsub double %46, %48
  %50 = load double, double* %4, align 8
  %51 = fmul double 2.000000e+00, %50
  %52 = fdiv double %49, %51
  store double %52, double* %8, align 8
  %53 = load double, double* %7, align 8
  %54 = load double, double* %8, align 8
  %55 = call i32 (i8*, ...) @printf(i8* getelementptr inbounds ([17 x i8], [17 x i8]* @.str.3, i64 0, i64 0), double %53, double %54)
  br label %83

56:                                               ; preds = %33
  %57 = load double, double* %5, align 8
  %58 = fneg double %57
  %59 = load double, double* %4, align 8
  %60 = fmul double 2.000000e+00, %59
  %61 = fdiv double %58, %60
  store double %61, double* %10, align 8
  %62 = load double, double* %9, align 8
  %63 = fneg double %62
  %64 = call double @sqrt(double %63) #4
  %65 = load double, double* %4, align 8
  %66 = fmul double 2.000000e+00, %65
  %67 = fdiv double %64, %66
  store double %67, double* %11, align 8
  %68 = load double, double* %5, align 8
  %69 = fcmp oeq double %68, 0.000000e+00
  br i1 %69, label %70, label %76

70:                                               ; preds = %56
  %71 = load double, double* %5, align 8
  %72 = load double, double* %11, align 8
  %73 = load double, double* %5, align 8
  %74 = load double, double* %11, align 8
  %75 = call i32 (i8*, ...) @printf(i8* getelementptr inbounds ([29 x i8], [29 x i8]* @.str.4, i64 0, i64 0), double %71, double %72, double %73, double %74)
  br label %82

76:                                               ; preds = %56
  %77 = load double, double* %10, align 8
  %78 = load double, double* %11, align 8
  %79 = load double, double* %10, align 8
  %80 = load double, double* %11, align 8
  %81 = call i32 (i8*, ...) @printf(i8* getelementptr inbounds ([29 x i8], [29 x i8]* @.str.4, i64 0, i64 0), double %77, double %78, double %79, double %80)
  br label %82

82:                                               ; preds = %76, %70
  br label %83

83:                                               ; preds = %82, %36
  br label %84

84:                                               ; preds = %83, %26
  %85 = load i32, i32* %3, align 4
  %86 = add nsw i32 %85, 1
  store i32 %86, i32* %3, align 4
  br label %87

87:                                               ; preds = %84
  %88 = load i32, i32* %3, align 4
  %89 = load i32, i32* %2, align 4
  %90 = icmp sle i32 %88, %89
  br i1 %90, label %13, label %91

91:                                               ; preds = %87
  %92 = load i32, i32* %1, align 4
  ret i32 %92
}

declare dso_local i32 @__isoc99_scanf(i8*, ...) #1

; Function Attrs: nounwind readnone speculatable willreturn
declare double @llvm.fabs.f64(double) #2

declare dso_local i32 @printf(i8*, ...) #1

; Function Attrs: nounwind
declare dso_local double @sqrt(double) #3


!llvm.module.flags = !{!0}
!llvm.ident = !{!1}

!0 = !{i32 1, !"wchar_size", i32 4}
!1 = !{!"clang version 10.0.0-4ubuntu1 "}
